Certificate:
    Data:
        Version: 3 (0x2)
        Serial Number: 1 (0x1)
        Signature Algorithm: sha256WithRSAEncryption
        Issuer: C=MY, ST=Selangor, L=Subang, O=xtool trust authority, OU=cryptosec research, CN=xtoolta/emailAddress=test@example.com
        Validity
            Not Before: Aug 20 09:55:16 2020 GMT
            Not After : Aug 20 09:55:16 2022 GMT
        Subject: CN=localhost
        Subject Public Key Info:
            Public Key Algorithm: rsaEncryption
                RSA Public-Key: (2048 bit)
                Modulus:
                    00:bb:72:85:38:d6:2d:9f:10:54:b0:cb:68:bb:e1:
                    bc:ac:06:66:0c:35:e1:f6:e0:df:60:af:95:48:b3:
                    a2:50:88:2f:c3:1e:92:22:2f:16:59:af:e0:b1:8f:
                    1a:42:10:e7:18:72:c4:9d:c4:b6:78:f5:45:51:05:
                    0d:48:6f:85:89:3e:da:6e:45:3f:68:04:8e:2f:e3:
                    40:e2:be:62:ea:f3:cf:bd:f3:84:7a:aa:02:70:b0:
                    cf:98:0e:3a:08:ac:be:22:6a:2c:a5:48:20:f3:ca:
                    ee:bf:89:aa:57:fe:50:b2:5b:51:04:7a:28:21:f6:
                    88:ce:a2:f1:53:57:cf:d8:64:2e:50:4a:64:64:d6:
                    8c:d2:fe:ee:29:92:ed:68:88:ed:c8:7e:9f:92:2e:
                    2d:5a:c7:0b:e5:d8:57:49:57:95:ec:a2:1b:50:cc:
                    f0:01:6e:bc:b9:91:41:90:4f:3c:21:d2:2a:54:24:
                    dd:10:d2:1e:20:00:d6:5e:7e:91:ad:57:61:44:16:
                    41:87:ed:af:8a:a2:00:ed:23:44:be:0c:c6:2f:6c:
                    9c:77:59:4d:ab:29:11:9d:38:26:00:b1:ea:37:9b:
                    60:1e:a9:45:95:10:d7:43:f2:77:3d:6f:58:5a:57:
                    da:88:31:d5:27:cc:38:bb:98:03:bc:4e:d1:2c:db:
                    fd:5f
                Exponent: 65537 (0x10001)
        X509v3 extensions:
            X509v3 Subject Key Identifier: 
                46:6C:C3:75:9E:3B:B6:BB:3F:A1:1E:EF:40:63:FB:0B:28:92:37:46
            X509v3 Authority Key Identifier: 
                keyid:F3:DA:90:D9:B5:5E:4F:1E:8E:A1:6A:92:EE:5D:E0:87:F0:5F:9F:F3

            X509v3 Basic Constraints: 
                CA:FALSE
            X509v3 Key Usage: 
                Digital Signature, Key Encipherment
            X509v3 Subject Alternative Name: 
                DNS:example.com, DNS:www.example.com, DNS:mail.example.com, DNS:ftp.example.com, IP Address:127.0.0.1, IP Address:0:0:0:0:0:0:0:1
            Netscape Comment: 
                OpenSSL Generated Certificate
    Signature Algorithm: sha256WithRSAEncryption
         ca:b6:5a:05:59:8a:80:3e:8c:82:6f:f6:9f:86:b5:fa:30:e2:
         ee:0c:7b:c4:b0:dd:e4:1c:2e:a9:f6:d4:3f:6d:69:a1:65:3b:
         20:14:9d:da:cb:18:3d:15:09:64:33:83:ed:e2:dd:34:3c:ce:
         5f:dd:99:ef:2a:cf:65:50:37:a5:6a:8b:d6:b0:69:21:22:84:
         49:22:2f:27:63:0c:7b:19:1d:f4:d4:c3:07:a2:aa:8d:8f:b1:
         ed:ed:6c:ad:ed:59:b2:4d:02:2e:11:2f:c5:8c:2a:5d:39:ff:
         4a:c1:94:26:a1:cb:fa:d7:b4:f8:bb:be:93:9e:69:d1:74:c5:
         1a:89:b4:c6:71:33:31:9d:da:89:cb:11:f3:12:9a:6e:35:39:
         94:f8:f5:5c:68:c4:be:44:40:95:df:36:e6:e9:cd:b8:4a:c2:
         5f:44:4e:a4:cb:2e:e9:66:18:7f:bc:e1:12:59:90:49:be:ed:
         1f:0c:67:c2:9a:08:03:33:fa:e4:c3:a6:ba:27:4e:33:08:4a:
         bc:3e:fd:c7:de:ab:70:c5:73:c9:af:ba:09:1a:7b:2b:d6:ce:
         1a:68:67:34:c8:d1:62:82:30:e4:d1:c7:88:60:a6:0e:eb:06:
         58:50:f3:da:af:c5:3b:83:6c:e0:0b:67:88:6f:5f:58:12:52:
         ba:20:b0:be:f2:42:c9:4d:65:ba:ef:af:8e:93:7f:ec:81:dd:
         1d:79:b3:f5:5b:4d:55:c9:63:85:1e:6d:3d:72:30:6a:25:78:
         5c:9c:fe:8b:64:a0:38:75:42:07:17:09:e9:c6:1e:e0:9a:98:
         91:df:70:b2:5b:48:31:01:93:03:c8:99:c7:a6:6e:d2:2a:e9:
         61:2a:8e:14:b7:49:ab:85:11:1e:9b:e2:f7:e1:f5:99:ad:c9:
         39:03:91:34:6c:60:b2:a5:90:ba:67:c6:9c:62:db:db:84:55:
         f6:cb:d6:89:b3:de:1b:35:d5:9a:1f:81:b8:ac:45:a5:a3:b7:
         d3:af:0c:de:49:82:ba:0b:60:b8:70:0b:d0:c0:c1:89:35:09:
         28:2b:6b:e0:7f:1d:6b:a7:c2:30:9d:39:6e:a8:fe:e7:76:7d:
         f6:f7:cc:79:8e:69:25:bf:eb:51:93:94:5e:80:5f:24:d7:1b:
         c6:50:f7:7a:c2:6a:9a:9c:a4:7d:48:22:69:51:5d:db:c9:67:
         09:d3:a4:1c:e0:3a:eb:ad:e9:6c:a4:b4:3f:80:3b:eb:ff:15:
         5b:f9:6c:5e:56:1d:81:66:2b:f7:65:e6:98:68:c2:c9:72:08:
         0c:c4:fa:db:67:57:2e:70:41:6a:e0:e5:37:f8:ff:69:70:50:
         01:43:a4:6a:d1:9b:84:92
-----BEGIN CERTIFICATE-----
MIIFHzCCAwegAwIBAgIBATANBgkqhkiG9w0BAQsFADCBoTELMAkGA1UEBhMCTVkx
ETAPBgNVBAgMCFNlbGFuZ29yMQ8wDQYDVQQHDAZTdWJhbmcxHjAcBgNVBAoMFXh0
b29sIHRydXN0IGF1dGhvcml0eTEbMBkGA1UECwwSY3J5cHRvc2VjIHJlc2VhcmNo
MRAwDgYDVQQDDAd4dG9vbHRhMR8wHQYJKoZIhvcNAQkBFhB0ZXN0QGV4YW1wbGUu
Y29tMB4XDTIwMDgyMDA5NTUxNloXDTIyMDgyMDA5NTUxNlowFDESMBAGA1UEAwwJ
bG9jYWxob3N0MIIBIjANBgkqhkiG9w0BAQEFAAOCAQ8AMIIBCgKCAQEAu3KFONYt
nxBUsMtou+G8rAZmDDXh9uDfYK+VSLOiUIgvwx6SIi8WWa/gsY8aQhDnGHLEncS2
ePVFUQUNSG+FiT7abkU/aASOL+NA4r5i6vPPvfOEeqoCcLDPmA46CKy+ImospUgg
88ruv4mqV/5QsltRBHooIfaIzqLxU1fP2GQuUEpkZNaM0v7uKZLtaIjtyH6fki4t
WscL5dhXSVeV7KIbUMzwAW68uZFBkE88IdIqVCTdENIeIADWXn6RrVdhRBZBh+2v
iqIA7SNEvgzGL2ycd1lNqykRnTgmALHqN5tgHqlFlRDXQ/J3PW9YWlfaiDHVJ8w4
u5gDvE7RLNv9XwIDAQABo4HtMIHqMB0GA1UdDgQWBBRGbMN1nju2uz+hHu9AY/sL
KJI3RjAfBgNVHSMEGDAWgBTz2pDZtV5PHo6hapLuXeCH8F+f8zAJBgNVHRMEAjAA
MAsGA1UdDwQEAwIFoDBiBgNVHREEWzBZggtleGFtcGxlLmNvbYIPd3d3LmV4YW1w
bGUuY29tghBtYWlsLmV4YW1wbGUuY29tgg9mdHAuZXhhbXBsZS5jb22HBH8AAAGH
EAAAAAAAAAAAAAAAAAAAAAEwLAYJYIZIAYb4QgENBB8WHU9wZW5TU0wgR2VuZXJh
dGVkIENlcnRpZmljYXRlMA0GCSqGSIb3DQEBCwUAA4ICAQDKtloFWYqAPoyCb/af
hrX6MOLuDHvEsN3kHC6p9tQ/bWmhZTsgFJ3ayxg9FQlkM4Pt4t00PM5f3ZnvKs9l
UDelaovWsGkhIoRJIi8nYwx7GR301MMHoqqNj7Ht7Wyt7VmyTQIuES/FjCpdOf9K
wZQmocv617T4u76TnmnRdMUaibTGcTMxndqJyxHzEppuNTmU+PVcaMS+RECV3zbm
6c24SsJfRE6kyy7pZhh/vOESWZBJvu0fDGfCmggDM/rkw6a6J04zCEq8Pv3H3qtw
xXPJr7oJGnsr1s4aaGc0yNFigjDk0ceIYKYO6wZYUPPar8U7g2zgC2eIb19YElK6
ILC+8kLJTWW676+Ok3/sgd0debP1W01VyWOFHm09cjBqJXhcnP6LZKA4dUIHFwnp
xh7gmpiR33CyW0gxAZMDyJnHpm7SKulhKo4Ut0mrhREem+L34fWZrck5A5E0bGCy
pZC6Z8acYtvbhFX2y9aJs94bNdWaH4G4rEWlo7fTrwzeSYK6C2C4cAvQwMGJNQko
K2vgfx1rp8IwnTluqP7ndn3298x5jmklv+tRk5RegF8k1xvGUPd6wmqanKR9SCJp
UV3byWcJ06Qc4DrrrelspLQ/gDvr/xVb+WxeVh2BZiv3ZeaYaMLJcggMxPrbZ1cu
cEFq4OU3+P9pcFABQ6Rq0ZuEkg==
-----END CERTIFICATE-----
